target datalayout = "e-m:e-p270:32:32-p271:32:32-p272:64:64-i64:64-i128:128-f80:128-n8:16:32:64-S128"
target triple = "x86_64-pc-linux-gnu"

%struct.RlcMacPrivateData_t = type { i32, i32, i8, i32, i32, %union.anon }
%union.anon = type { %struct.egprs_ul_header_info_t }
%struct.egprs_ul_header_info_t = type { i16, i16, i8 }

; Function Attrs: null_pointer_is_valid sspstrong uwtable
define internal i32 @dissect_gsm_ec_rlcmac_downlink(ptr noundef %0, ptr noundef %1, ptr noundef %2, ptr noundef %3) #0 {
  %5 = alloca ptr, align 8
  %6 = alloca ptr, align 8
  %7 = alloca ptr, align 8
  %8 = alloca ptr, align 8
  %9 = alloca %struct.RlcMacPrivateData_t, align 4
  store ptr %0, ptr %5, align 8
  store ptr %1, ptr %6, align 8
  store ptr %2, ptr %7, align 8
  store ptr %3, ptr %8, align 8
  call void @llvm.lifetime.start.p0(i64 28, ptr %9) #5
  %10 = getelementptr inbounds nuw %struct.RlcMacPrivateData_t, ptr %9, i32 0, i32 0
  store i32 1735422579, ptr %10, align 4
  %11 = getelementptr inbounds nuw %struct.RlcMacPrivateData_t, ptr %9, i32 0, i32 1
  store i32 64, ptr %11, align 4
  %12 = getelementptr inbounds nuw %struct.RlcMacPrivateData_t, ptr %9, i32 0, i32 4
  store i32 0, ptr %12, align 4
  %13 = load ptr, ptr %5, align 8
  %14 = load ptr, ptr %6, align 8
  %15 = load ptr, ptr %7, align 8
  %16 = call i32 @dissect_gsm_rlcmac_downlink(ptr noundef %13, ptr noundef %14, ptr noundef %15, ptr noundef %9)
  call void @llvm.lifetime.end.p0(i64 28, ptr %9) #5
  ret i32 %16
}